; Function Attrs: mustprogress uwtable
define void @_ZNK3nix8fetchers5Input7getNameB5cxx11Ev(ptr dead_on_unwind noalias writable sret(%"class.std::__cxx11::basic_string") align 8 %0, ptr noundef nonnull align 8 dereferenceable(104) %1) local_unnamed_addr #5 align 2 personality ptr @__gxx_personality_v0 {
  %3 = alloca %"class.std::optional", align 8
  %4 = alloca %"class.std::__cxx11::basic_string", align 8
  %5 = alloca %"class.std::allocator.9", align 1
  call void @_ZNSaIcEC1Ev(ptr noundef nonnull align 1 dereferenceable(1) %5) #27
  invoke void @_ZNSt7__cxx1112basic_stringIcSt11char_traitsIcESaIcEEC2IS3_EEPKcRKS3_(ptr noundef nonnull align 8 dereferenceable(32) %4, ptr noundef nonnull @.str.22, ptr noundef nonnull align 1 dereferenceable(1) %5)
          to label %6 unwind label %26

6:                                                ; preds = %2
  %7 = getelementptr inbounds i8, ptr %1, i64 16
  invoke void @_ZN3nix8fetchers15maybeGetStrAttrERKSt3mapINSt7__cxx1112basic_stringIcSt11char_traitsIcESaIcEEESt7variantIJS7_mNS_8ExplicitIbEEEESt4lessIS7_ESaISt4pairIKS7_SB_EEERSF_(ptr dead_on_unwind nonnull writable sret(%"class.std::optional") align 8 %3, ptr noundef nonnull align 8 dereferenceable(48) %7, ptr noundef nonnull align 8 dereferenceable(32) %4)
          to label %8 unwind label %28

8:                                                ; preds = %6
  invoke void @_ZNOSt8optionalINSt7__cxx1112basic_stringIcSt11char_traitsIcESaIcEEEE8value_orIRA7_KcEES5_OT_(ptr dead_on_unwind writable sret(%"class.std::__cxx11::basic_string") align 8 %0, ptr noundef nonnull align 8 dereferenceable(40) %3, ptr noundef nonnull align 1 dereferenceable(7) @.str.23)
          to label %9 unwind label %30

9:                                                ; preds = %8
  %10 = getelementptr inbounds i8, ptr %3, i64 32
  %11 = load i8, ptr %10, align 8
  %12 = and i8 %11, 1
  %.not.i.i.i.i = icmp eq i8 %12, 0
  br i1 %.not.i.i.i.i, label %_ZNSt8optionalINSt7__cxx1112basic_stringIcSt11char_traitsIcESaIcEEEED2Ev.exit, label %13

13:                                               ; preds = %9
  store i8 0, ptr %10, align 8
  %14 = load ptr, ptr %3, align 8
  %15 = getelementptr inbounds i8, ptr %3, i64 16
  %16 = icmp eq ptr %14, %15
  br i1 %16, label %_ZNKSt7__cxx1112basic_stringIcSt11char_traitsIcESaIcEE11_M_is_localEv.exit.thread.i.i.i.i.i.i.i, label %_ZNKSt7__cxx1112basic_stringIcSt11char_traitsIcESaIcEE11_M_is_localEv.exit.i.i.i.i.i.i.i

_ZNKSt7__cxx1112basic_stringIcSt11char_traitsIcESaIcEE11_M_is_localEv.exit.thread.i.i.i.i.i.i.i: ; preds = %13
  %17 = getelementptr inbounds i8, ptr %3, i64 8
  %18 = load i64, ptr %17, align 8
  %19 = icmp ult i64 %18, 16
  call void @llvm.assume(i1 %19)
  br label %_ZNSt22_Optional_payload_baseINSt7__cxx1112basic_stringIcSt11char_traitsIcESaIcEEEE10_M_destroyEv.exit.i.i.i.i

_ZNKSt7__cxx1112basic_stringIcSt11char_traitsIcESaIcEE11_M_is_localEv.exit.i.i.i.i.i.i.i: ; preds = %13
  call void @_ZdlPv(ptr noundef %14) #29
  br label %_ZNSt22_Optional_payload_baseINSt7__cxx1112basic_stringIcSt11char_traitsIcESaIcEEEE10_M_destroyEv.exit.i.i.i.i

_ZNSt22_Optional_payload_baseINSt7__cxx1112basic_stringIcSt11char_traitsIcESaIcEEEE10_M_destroyEv.exit.i.i.i.i: ; preds = %_ZNKSt7__cxx1112basic_stringIcSt11char_traitsIcESaIcEE11_M_is_localEv.exit.i.i.i.i.i.i.i, %_ZNKSt7__cxx1112basic_stringIcSt11char_traitsIcESaIcEE11_M_is_localEv.exit.thread.i.i.i.i.i.i.i
  call void @_ZNSaIcED2Ev(ptr noundef nonnull align 1 dereferenceable(1) %3) #27
  br label %_ZNSt8optionalINSt7__cxx1112basic_stringIcSt11char_traitsIcESaIcEEEED2Ev.exit

_ZNSt8optionalINSt7__cxx1112basic_stringIcSt11char_traitsIcESaIcEEEED2Ev.exit: ; preds = %9, %_ZNSt22_Optional_payload_baseINSt7__cxx1112basic_stringIcSt11char_traitsIcESaIcEEEE10_M_destroyEv.exit.i.i.i.i
  %20 = load ptr, ptr %4, align 8
  %21 = getelementptr inbounds i8, ptr %4, i64 16
  %22 = icmp eq ptr %20, %21
  br i1 %22, label %_ZNKSt7__cxx1112basic_stringIcSt11char_traitsIcESaIcEE11_M_is_localEv.exit.thread.i.i, label %_ZNKSt7__cxx1112basic_stringIcSt11char_traitsIcESaIcEE11_M_is_localEv.exit.i.i

_ZNKSt7__cxx1112basic_stringIcSt11char_traitsIcESaIcEE11_M_is_localEv.exit.thread.i.i: ; preds = %_ZNSt8optionalINSt7__cxx1112basic_stringIcSt11char_traitsIcESaIcEEEED2Ev.exit
  %23 = getelementptr inbounds i8, ptr %4, i64 8
  %24 = load i64, ptr %23, align 8
  %25 = icmp ult i64 %24, 16
  call void @llvm.assume(i1 %25)
  br label %_ZNSt7__cxx1112basic_stringIcSt11char_traitsIcESaIcEED2Ev.exit

_ZNKSt7__cxx1112basic_stringIcSt11char_traitsIcESaIcEE11_M_is_localEv.exit.i.i: ; preds = %_ZNSt8optionalINSt7__cxx1112basic_stringIcSt11char_traitsIcESaIcEEEED2Ev.exit
  call void @_ZdlPv(ptr noundef %20) #29
  br label %_ZNSt7__cxx1112basic_stringIcSt11char_traitsIcESaIcEED2Ev.exit

_ZNSt7__cxx1112basic_stringIcSt11char_traitsIcESaIcEED2Ev.exit: ; preds = %_ZNKSt7__cxx1112basic_stringIcSt11char_traitsIcESaIcEE11_M_is_localEv.exit.thread.i.i, %_ZNKSt7__cxx1112basic_stringIcSt11char_traitsIcESaIcEE11_M_is_localEv.exit.i.i
  call void @_ZNSaIcED2Ev(ptr noundef nonnull align 1 dereferenceable(1) %4) #27
  call void @_ZNSaIcED1Ev(ptr noundef nonnull align 1 dereferenceable(1) %5) #27
  ret void

26:                                               ; preds = %2
  %27 = landingpad { ptr, i32 }
          cleanup
  br label %33

28:                                               ; preds = %6
  %29 = landingpad { ptr, i32 }
          cleanup
  br label %32

30:                                               ; preds = %8
  %31 = landingpad { ptr, i32 }
          cleanup
  call void @_ZNSt8optionalINSt7__cxx1112basic_stringIcSt11char_traitsIcESaIcEEEED2Ev(ptr noundef nonnull align 8 dereferenceable(40) %3) #27
  br label %32

32:                                               ; preds = %30, %28
  %.pn = phi { ptr, i32 } [ %31, %30 ], [ %29, %28 ]
  call void @_ZNSt7__cxx1112basic_stringIcSt11char_traitsIcESaIcEED2Ev(ptr noundef nonnull align 8 dereferenceable(32) %4) #27
  br label %33

33:                                               ; preds = %32, %26
  %.pn.pn = phi { ptr, i32 } [ %.pn, %32 ], [ %27, %26 ]
  call void @_ZNSaIcED1Ev(ptr noundef nonnull align 1 dereferenceable(1) %5) #27
  resume { ptr, i32 } %.pn.pn
}